; Function Attrs: null_pointer_is_valid sspstrong uwtable
define internal noundef zeroext i16 @de_tp_epc_ue_tl_gh_setup(ptr noundef %0, ptr noundef %1, ptr readnone captures(none) %2, i32 noundef %3, i32 %4, ptr readnone captures(none) %5, i32 %6) #1 {
  %8 = load i32, ptr @hf_gsm_a_dtap_epc_ue_tl_gh_ul_loopback_op_mode, align 4
  %9 = shl i32 %3, 3
  %10 = tail call ptr @proto_tree_add_bits_item(ptr noundef %1, i32 noundef %8, ptr noundef %0, i32 noundef %9, i32 noundef 1, i32 noundef 0)
  %11 = load i32, ptr @hf_gsm_a_dtap_epc_ue_tl_gh_repetitions, align 4
  %12 = or disjoint i32 %9, 1
  %13 = tail call ptr @proto_tree_add_bits_item(ptr noundef %1, i32 noundef %11, ptr noundef %0, i32 noundef %12, i32 noundef 7, i32 noundef 0)
  %14 = add i32 %3, 1
  %15 = load i32, ptr @hf_gsm_a_dtap_epc_ue_tl_gh_ul_data_delay, align 4
  %16 = tail call ptr @proto_tree_add_item(ptr noundef %1, i32 noundef %15, ptr noundef %0, i32 noundef %14, i32 noundef 1, i32 noundef 0)
  ret i16 2
}